; Function Attrs: mustprogress nounwind uwtable
define void @_ZN7glslang13TParseContext25handleSelectionAttributesERKNS_5TListINS_14TAttributeArgsEEEP11TIntermNode(ptr noundef nonnull align 8 dereferenceable(30232) %0, ptr noundef nonnull readonly align 8 dereferenceable(32) %1, ptr noundef %2) local_unnamed_addr #0 align 2 {
  %4 = load ptr, ptr %2, align 8
  %5 = getelementptr inbounds i8, ptr %4, i64 72
  %6 = load ptr, ptr %5, align 8
  %7 = tail call noundef ptr %6(ptr noundef nonnull align 8 dereferenceable(32) %2) #11
  %8 = icmp eq ptr %7, null
  br i1 %8, label %.loopexit, label %9

9:                                                ; preds = %3
  %10 = getelementptr inbounds i8, ptr %1, i64 8
  %.sroa.09.013 = load ptr, ptr %10, align 8
  %.not14 = icmp eq ptr %.sroa.09.013, %10
  br i1 %.not14, label %.loopexit, label %.lr.ph

.lr.ph:                                           ; preds = %9
  %11 = getelementptr inbounds i8, ptr %7, i64 210
  %12 = getelementptr inbounds i8, ptr %7, i64 209
  br label %13

13:                                               ; preds = %.lr.ph, %49
  %.sroa.09.015 = phi ptr [ %.sroa.09.013, %.lr.ph ], [ %.sroa.09.0, %49 ]
  %14 = getelementptr inbounds i8, ptr %.sroa.09.015, i64 16
  %15 = getelementptr inbounds i8, ptr %.sroa.09.015, i64 24
  %16 = load ptr, ptr %15, align 8
  %17 = icmp eq ptr %16, null
  br i1 %17, label %_ZNK7glslang14TAttributeArgs4sizeEv.exit.thread, label %_ZNK7glslang14TAttributeArgs4sizeEv.exit

_ZNK7glslang14TAttributeArgs4sizeEv.exit:         ; preds = %13
  %18 = load ptr, ptr %16, align 8
  %19 = getelementptr inbounds i8, ptr %18, i64 408
  %20 = load ptr, ptr %19, align 8
  %21 = tail call noundef nonnull align 8 dereferenceable(32) ptr %20(ptr noundef nonnull align 8 dereferenceable(364) %16) #11
  %22 = getelementptr inbounds i8, ptr %21, i64 8
  %23 = getelementptr inbounds i8, ptr %21, i64 16
  %24 = load ptr, ptr %23, align 8
  %25 = load ptr, ptr %22, align 8
  %26 = ptrtoint ptr %24 to i64
  %27 = ptrtoint ptr %25 to i64
  %28 = sub i64 %26, %27
  %29 = lshr exact i64 %28, 3
  %30 = trunc i64 %29 to i32
  %31 = icmp sgt i32 %30, 0
  br i1 %31, label %32, label %_ZNK7glslang14TAttributeArgs4sizeEv.exit.thread

32:                                               ; preds = %_ZNK7glslang14TAttributeArgs4sizeEv.exit
  %33 = load ptr, ptr %2, align 8
  %34 = load ptr, ptr %33, align 8
  %35 = tail call noundef nonnull align 8 dereferenceable(24) ptr %34(ptr noundef nonnull align 8 dereferenceable(32) %2) #11
  %36 = load ptr, ptr %0, align 8
  %37 = getelementptr inbounds i8, ptr %36, i64 352
  %38 = load ptr, ptr %37, align 8
  tail call void (ptr, ptr, ptr, ptr, ptr, ...) %38(ptr noundef nonnull align 8 dereferenceable(1280) %0, ptr noundef nonnull align 8 dereferenceable(24) %35, ptr noundef nonnull @.str.16, ptr noundef nonnull @.str.17, ptr noundef nonnull @.str.17) #11
  br label %49

_ZNK7glslang14TAttributeArgs4sizeEv.exit.thread:  ; preds = %13, %_ZNK7glslang14TAttributeArgs4sizeEv.exit
  %39 = load i32, ptr %14, align 8
  switch i32 %39, label %42 [
    i32 7, label %40
    i32 2, label %41
  ]

40:                                               ; preds = %_ZNK7glslang14TAttributeArgs4sizeEv.exit.thread
  store i8 1, ptr %12, align 1
  br label %49

41:                                               ; preds = %_ZNK7glslang14TAttributeArgs4sizeEv.exit.thread
  store i8 1, ptr %11, align 2
  br label %49

42:                                               ; preds = %_ZNK7glslang14TAttributeArgs4sizeEv.exit.thread
  %43 = load ptr, ptr %2, align 8
  %44 = load ptr, ptr %43, align 8
  %45 = tail call noundef nonnull align 8 dereferenceable(24) ptr %44(ptr noundef nonnull align 8 dereferenceable(32) %2) #11
  %46 = load ptr, ptr %0, align 8
  %47 = getelementptr inbounds i8, ptr %46, i64 352
  %48 = load ptr, ptr %47, align 8
  tail call void (ptr, ptr, ptr, ptr, ptr, ...) %48(ptr noundef nonnull align 8 dereferenceable(1280) %0, ptr noundef nonnull align 8 dereferenceable(24) %45, ptr noundef nonnull @.str.18, ptr noundef nonnull @.str.17, ptr noundef nonnull @.str.17) #11
  br label %49

49:                                               ; preds = %40, %41, %42, %32
  %.sroa.09.0 = load ptr, ptr %.sroa.09.015, align 8
  %.not = icmp eq ptr %.sroa.09.0, %10
  br i1 %.not, label %.loopexit, label %13, !llvm.loop !6

.loopexit:                                        ; preds = %49, %9, %3
  ret void
}